target datalayout = "e-m:e-p270:32:32-p271:32:32-p272:64:64-i64:64-i128:128-f80:128-n8:16:32:64-S128"
target triple = "x86_64-pc-linux-gnu"

%struct._sip_stats_t = type { ptr, i32, i32, i32, i32, i32, i32, i64, ptr, ptr }
%struct._sip_info_value_t = type { ptr, i32, i8, i32, ptr, ptr, ptr, i32, ptr }
%struct._sip_response_code_t = type { i32, i32, ptr, ptr }
%struct._sip_request_method_t = type { ptr, i32, ptr }

; Function Attrs: null_pointer_is_valid sspstrong uwtable
define internal i32 @sipstat_packet(ptr noundef %0, ptr noundef %1, ptr noundef %2, ptr noundef %3, i32 noundef %4) #0 {
  %6 = alloca i32, align 4
  %7 = alloca ptr, align 8
  %8 = alloca ptr, align 8
  %9 = alloca ptr, align 8
  %10 = alloca ptr, align 8
  %11 = alloca i32, align 4
  %12 = alloca ptr, align 8
  %13 = alloca ptr, align 8
  %14 = alloca i32, align 4
  %15 = alloca ptr, align 8
  %16 = alloca i32, align 4
  %17 = alloca i32, align 4
  %18 = alloca ptr, align 8
  %19 = alloca i64, align 8
  %20 = alloca i64, align 8
  %21 = alloca ptr, align 8
  %22 = alloca ptr, align 8
  store ptr %0, ptr %7, align 8
  store ptr %1, ptr %8, align 8
  store ptr %2, ptr %9, align 8
  store ptr %3, ptr %10, align 8
  store i32 %4, ptr %11, align 4
  call void @llvm.lifetime.start.p0(i64 8, ptr %12) #9
  %23 = load ptr, ptr %10, align 8
  store ptr %23, ptr %12, align 8
  call void @llvm.lifetime.start.p0(i64 8, ptr %13) #9
  %24 = load ptr, ptr %7, align 8
  store ptr %24, ptr %13, align 8
  %25 = load ptr, ptr %13, align 8
  %26 = getelementptr inbounds nuw %struct._sip_stats_t, ptr %25, i32 0, i32 1
  %27 = load i32, ptr %26, align 8
  %28 = add i32 %27, 1
  store i32 %28, ptr %26, align 8
  %29 = load ptr, ptr %12, align 8
  %30 = getelementptr inbounds nuw %struct._sip_info_value_t, ptr %29, i32 0, i32 3
  %31 = load i32, ptr %30, align 8
  %32 = icmp ne i32 %31, 0
  br i1 %32, label %33, label %115

33:                                               ; preds = %5
  %34 = load ptr, ptr %13, align 8
  %35 = getelementptr inbounds nuw %struct._sip_stats_t, ptr %34, i32 0, i32 6
  %36 = load i32, ptr %35, align 4
  %37 = add i32 %36, 1
  store i32 %37, ptr %35, align 4
  %38 = load ptr, ptr %13, align 8
  %39 = getelementptr inbounds nuw %struct._sip_stats_t, ptr %38, i32 0, i32 7
  %40 = load i64, ptr %39, align 8
  %41 = icmp eq i64 %40, 0
  br i1 %41, label %42, label %64

42:                                               ; preds = %33
  %43 = load ptr, ptr %12, align 8
  %44 = getelementptr inbounds nuw %struct._sip_info_value_t, ptr %43, i32 0, i32 3
  %45 = load i32, ptr %44, align 8
  %46 = load ptr, ptr %13, align 8
  %47 = getelementptr inbounds nuw %struct._sip_stats_t, ptr %46, i32 0, i32 3
  store i32 %45, ptr %47, align 8
  %48 = load ptr, ptr %12, align 8
  %49 = getelementptr inbounds nuw %struct._sip_info_value_t, ptr %48, i32 0, i32 3
  %50 = load i32, ptr %49, align 8
  %51 = zext i32 %50 to i64
  %52 = load ptr, ptr %13, align 8
  %53 = getelementptr inbounds nuw %struct._sip_stats_t, ptr %52, i32 0, i32 7
  store i64 %51, ptr %53, align 8
  %54 = load ptr, ptr %12, align 8
  %55 = getelementptr inbounds nuw %struct._sip_info_value_t, ptr %54, i32 0, i32 3
  %56 = load i32, ptr %55, align 8
  %57 = load ptr, ptr %13, align 8
  %58 = getelementptr inbounds nuw %struct._sip_stats_t, ptr %57, i32 0, i32 4
  store i32 %56, ptr %58, align 4
  %59 = load ptr, ptr %12, align 8
  %60 = getelementptr inbounds nuw %struct._sip_info_value_t, ptr %59, i32 0, i32 3
  %61 = load i32, ptr %60, align 8
  %62 = load ptr, ptr %13, align 8
  %63 = getelementptr inbounds nuw %struct._sip_stats_t, ptr %62, i32 0, i32 5
  store i32 %61, ptr %63, align 8
  br label %114

64:                                               ; preds = %33
  %65 = load ptr, ptr %13, align 8
  %66 = getelementptr inbounds nuw %struct._sip_stats_t, ptr %65, i32 0, i32 7
  %67 = load i64, ptr %66, align 8
  %68 = load ptr, ptr %12, align 8
  %69 = getelementptr inbounds nuw %struct._sip_info_value_t, ptr %68, i32 0, i32 3
  %70 = load i32, ptr %69, align 8
  %71 = zext i32 %70 to i64
  %72 = add i64 %67, %71
  %73 = load ptr, ptr %13, align 8
  %74 = getelementptr inbounds nuw %struct._sip_stats_t, ptr %73, i32 0, i32 7
  store i64 %72, ptr %74, align 8
  %75 = load ptr, ptr %13, align 8
  %76 = getelementptr inbounds nuw %struct._sip_stats_t, ptr %75, i32 0, i32 4
  %77 = load i32, ptr %76, align 4
  %78 = load ptr, ptr %12, align 8
  %79 = getelementptr inbounds nuw %struct._sip_info_value_t, ptr %78, i32 0, i32 3
  %80 = load i32, ptr %79, align 8
  %81 = icmp ult i32 %77, %80
  br i1 %81, label %82, label %88

82:                                               ; preds = %64
  %83 = load ptr, ptr %12, align 8
  %84 = getelementptr inbounds nuw %struct._sip_info_value_t, ptr %83, i32 0, i32 3
  %85 = load i32, ptr %84, align 8
  %86 = load ptr, ptr %13, align 8
  %87 = getelementptr inbounds nuw %struct._sip_stats_t, ptr %86, i32 0, i32 4
  store i32 %85, ptr %87, align 4
  br label %88

88:                                               ; preds = %82, %64
  %89 = load ptr, ptr %13, align 8
  %90 = getelementptr inbounds nuw %struct._sip_stats_t, ptr %89, i32 0, i32 5
  %91 = load i32, ptr %90, align 8
  %92 = load ptr, ptr %12, align 8
  %93 = getelementptr inbounds nuw %struct._sip_info_value_t, ptr %92, i32 0, i32 3
  %94 = load i32, ptr %93, align 8
  %95 = icmp ugt i32 %91, %94
  br i1 %95, label %96, label %102

96:                                               ; preds = %88
  %97 = load ptr, ptr %12, align 8
  %98 = getelementptr inbounds nuw %struct._sip_info_value_t, ptr %97, i32 0, i32 3
  %99 = load i32, ptr %98, align 8
  %100 = load ptr, ptr %13, align 8
  %101 = getelementptr inbounds nuw %struct._sip_stats_t, ptr %100, i32 0, i32 5
  store i32 %99, ptr %101, align 8
  br label %102

102:                                              ; preds = %96, %88
  %103 = load ptr, ptr %13, align 8
  %104 = getelementptr inbounds nuw %struct._sip_stats_t, ptr %103, i32 0, i32 7
  %105 = load i64, ptr %104, align 8
  %106 = load ptr, ptr %13, align 8
  %107 = getelementptr inbounds nuw %struct._sip_stats_t, ptr %106, i32 0, i32 6
  %108 = load i32, ptr %107, align 4
  %109 = zext i32 %108 to i64
  %110 = udiv i64 %105, %109
  %111 = trunc i64 %110 to i32
  %112 = load ptr, ptr %13, align 8
  %113 = getelementptr inbounds nuw %struct._sip_stats_t, ptr %112, i32 0, i32 3
  store i32 %111, ptr %113, align 8
  br label %114

114:                                              ; preds = %102, %42
  br label %115

115:                                              ; preds = %114, %5
  %116 = load ptr, ptr %12, align 8
  %117 = getelementptr inbounds nuw %struct._sip_info_value_t, ptr %116, i32 0, i32 2
  %118 = load i8, ptr %117, align 4, !range !7, !noundef !8
  %119 = trunc i8 %118 to i1
  br i1 %119, label %120, label %125

120:                                              ; preds = %115
  %121 = load ptr, ptr %13, align 8
  %122 = getelementptr inbounds nuw %struct._sip_stats_t, ptr %121, i32 0, i32 2
  %123 = load i32, ptr %122, align 4
  %124 = add i32 %123, 1
  store i32 %124, ptr %122, align 4
  br label %125

125:                                              ; preds = %120, %115
  %126 = load ptr, ptr %12, align 8
  %127 = getelementptr inbounds nuw %struct._sip_info_value_t, ptr %126, i32 0, i32 1
  %128 = load i32, ptr %127, align 8
  %129 = icmp ne i32 %128, 0
  br i1 %129, label %130, label %196

130:                                              ; preds = %125
  call void @llvm.lifetime.start.p0(i64 4, ptr %14) #9
  call void @llvm.lifetime.start.p0(i64 8, ptr %15) #9
  %131 = load ptr, ptr %12, align 8
  %132 = getelementptr inbounds nuw %struct._sip_info_value_t, ptr %131, i32 0, i32 1
  %133 = load i32, ptr %132, align 8
  store i32 %133, ptr %14, align 4
  %134 = load ptr, ptr %13, align 8
  %135 = getelementptr inbounds nuw %struct._sip_stats_t, ptr %134, i32 0, i32 8
  %136 = load ptr, ptr %135, align 8
  %137 = call ptr @g_hash_table_lookup(ptr noundef %136, ptr noundef %14)
  store ptr %137, ptr %15, align 8
  %138 = load ptr, ptr %15, align 8
  %139 = icmp eq ptr %138, null
  br i1 %139, label %140, label %188

140:                                              ; preds = %130
  call void @llvm.lifetime.start.p0(i64 4, ptr %16) #9
  %141 = load ptr, ptr %12, align 8
  %142 = getelementptr inbounds nuw %struct._sip_info_value_t, ptr %141, i32 0, i32 1
  %143 = load i32, ptr %142, align 8
  store i32 %143, ptr %16, align 4
  %144 = load i32, ptr %16, align 4
  %145 = icmp slt i32 %144, 100
  br i1 %145, label %149, label %146

146:                                              ; preds = %140
  %147 = load i32, ptr %16, align 4
  %148 = icmp sge i32 %147, 700
  br i1 %148, label %149, label %150

149:                                              ; preds = %146, %140
  store i32 0, ptr %6, align 4
  store i32 1, ptr %17, align 4
  br label %185

150:                                              ; preds = %146
  %151 = load i32, ptr %16, align 4
  %152 = icmp slt i32 %151, 200
  br i1 %152, label %153, label %154

153:                                              ; preds = %150
  store i32 199, ptr %14, align 4
  br label %175

154:                                              ; preds = %150
  %155 = load i32, ptr %16, align 4
  %156 = icmp slt i32 %155, 300
  br i1 %156, label %157, label %158

157:                                              ; preds = %154
  store i32 299, ptr %14, align 4
  br label %174

158:                                              ; preds = %154
  %159 = load i32, ptr %16, align 4
  %160 = icmp slt i32 %159, 400
  br i1 %160, label %161, label %162

161:                                              ; preds = %158
  store i32 399, ptr %14, align 4
  br label %173

162:                                              ; preds = %158
  %163 = load i32, ptr %16, align 4
  %164 = icmp slt i32 %163, 500
  br i1 %164, label %165, label %166

165:                                              ; preds = %162
  store i32 499, ptr %14, align 4
  br label %172

166:                                              ; preds = %162
  %167 = load i32, ptr %16, align 4
  %168 = icmp slt i32 %167, 600
  br i1 %168, label %169, label %170

169:                                              ; preds = %166
  store i32 599, ptr %14, align 4
  br label %171

170:                                              ; preds = %166
  store i32 699, ptr %14, align 4
  br label %171

171:                                              ; preds = %170, %169
  br label %172

172:                                              ; preds = %171, %165
  br label %173

173:                                              ; preds = %172, %161
  br label %174

174:                                              ; preds = %173, %157
  br label %175

175:                                              ; preds = %174, %153
  br label %176

176:                                              ; preds = %175
  %177 = load ptr, ptr %13, align 8
  %178 = getelementptr inbounds nuw %struct._sip_stats_t, ptr %177, i32 0, i32 8
  %179 = load ptr, ptr %178, align 8
  %180 = call ptr @g_hash_table_lookup(ptr noundef %179, ptr noundef %14)
  store ptr %180, ptr %15, align 8
  %181 = load ptr, ptr %15, align 8
  %182 = icmp eq ptr %181, null
  br i1 %182, label %183, label %184

183:                                              ; preds = %176
  store i32 0, ptr %6, align 4
  store i32 1, ptr %17, align 4
  br label %185

184:                                              ; preds = %176
  store i32 0, ptr %17, align 4
  br label %185

185:                                              ; preds = %184, %183, %149
  call void @llvm.lifetime.end.p0(i64 4, ptr %16) #9
  %186 = load i32, ptr %17, align 4
  switch i32 %186, label %193 [
    i32 0, label %187
  ]

187:                                              ; preds = %185
  br label %188

188:                                              ; preds = %187, %130
  %189 = load ptr, ptr %15, align 8
  %190 = getelementptr inbounds nuw %struct._sip_response_code_t, ptr %189, i32 0, i32 0
  %191 = load i32, ptr %190, align 8
  %192 = add i32 %191, 1
  store i32 %192, ptr %190, align 8
  store i32 0, ptr %17, align 4
  br label %193

193:                                              ; preds = %188, %185
  call void @llvm.lifetime.end.p0(i64 8, ptr %15) #9
  call void @llvm.lifetime.end.p0(i64 4, ptr %14) #9
  %194 = load i32, ptr %17, align 4
  switch i32 %194, label %269 [
    i32 0, label %195
  ]

195:                                              ; preds = %193
  br label %268

196:                                              ; preds = %125
  %197 = load ptr, ptr %12, align 8
  %198 = getelementptr inbounds nuw %struct._sip_info_value_t, ptr %197, i32 0, i32 0
  %199 = load ptr, ptr %198, align 8
  %200 = icmp ne ptr %199, null
  br i1 %200, label %201, label %266

201:                                              ; preds = %196
  call void @llvm.lifetime.start.p0(i64 8, ptr %18) #9
  %202 = load ptr, ptr %13, align 8
  %203 = getelementptr inbounds nuw %struct._sip_stats_t, ptr %202, i32 0, i32 9
  %204 = load ptr, ptr %203, align 8
  %205 = load ptr, ptr %12, align 8
  %206 = getelementptr inbounds nuw %struct._sip_info_value_t, ptr %205, i32 0, i32 0
  %207 = load ptr, ptr %206, align 8
  %208 = call ptr @g_hash_table_lookup(ptr noundef %204, ptr noundef %207)
  store ptr %208, ptr %18, align 8
  %209 = load ptr, ptr %18, align 8
  %210 = icmp eq ptr %209, null
  br i1 %210, label %211, label %260

211:                                              ; preds = %201
  call void @llvm.lifetime.start.p0(i64 8, ptr %19) #9
  store i64 1, ptr %19, align 8
  call void @llvm.lifetime.start.p0(i64 8, ptr %20) #9
  store i64 24, ptr %20, align 8
  call void @llvm.lifetime.start.p0(i64 8, ptr %21) #9
  %212 = load i64, ptr %20, align 8
  %213 = icmp eq i64 %212, 1
  br i1 %213, label %214, label %217

214:                                              ; preds = %211
  %215 = load i64, ptr %19, align 8
  %216 = call noalias ptr @g_malloc(i64 noundef %215) #11
  store ptr %216, ptr %21, align 8
  br label %238

217:                                              ; preds = %211
  %218 = load i64, ptr %19, align 8
  %219 = call i1 @llvm.is.constant.i64(i64 %218)
  br i1 %219, label %220, label %233

220:                                              ; preds = %217
  %221 = load i64, ptr %20, align 8
  %222 = icmp eq i64 %221, 0
  br i1 %222, label %228, label %223

223:                                              ; preds = %220
  %224 = load i64, ptr %19, align 8
  %225 = load i64, ptr %20, align 8
  %226 = udiv i64 -1, %225
  %227 = icmp ule i64 %224, %226
  br i1 %227, label %228, label %233

228:                                              ; preds = %223, %220
  %229 = load i64, ptr %19, align 8
  %230 = load i64, ptr %20, align 8
  %231 = mul i64 %229, %230
  %232 = call noalias ptr @g_malloc(i64 noundef %231) #11
  store ptr %232, ptr %21, align 8
  br label %237

233:                                              ; preds = %223, %217
  %234 = load i64, ptr %19, align 8
  %235 = load i64, ptr %20, align 8
  %236 = call noalias ptr @g_malloc_n(i64 noundef %234, i64 noundef %235) #12
  store ptr %236, ptr %21, align 8
  br label %237

237:                                              ; preds = %233, %228
  br label %238

238:                                              ; preds = %237, %214
  %239 = load ptr, ptr %21, align 8
  store ptr %239, ptr %22, align 8
  call void @llvm.lifetime.end.p0(i64 8, ptr %21) #9
  call void @llvm.lifetime.end.p0(i64 8, ptr %20) #9
  call void @llvm.lifetime.end.p0(i64 8, ptr %19) #9
  %240 = load ptr, ptr %22, align 8
  store ptr %240, ptr %18, align 8
  %241 = load ptr, ptr %12, align 8
  %242 = getelementptr inbounds nuw %struct._sip_info_value_t, ptr %241, i32 0, i32 0
  %243 = load ptr, ptr %242, align 8
  %244 = call noalias ptr @g_strdup(ptr noundef %243)
  %245 = load ptr, ptr %18, align 8
  %246 = getelementptr inbounds nuw %struct._sip_request_method_t, ptr %245, i32 0, i32 0
  store ptr %244, ptr %246, align 8
  %247 = load ptr, ptr %18, align 8
  %248 = getelementptr inbounds nuw %struct._sip_request_method_t, ptr %247, i32 0, i32 1
  store i32 1, ptr %248, align 8
  %249 = load ptr, ptr %13, align 8
  %250 = load ptr, ptr %18, align 8
  %251 = getelementptr inbounds nuw %struct._sip_request_method_t, ptr %250, i32 0, i32 2
  store ptr %249, ptr %251, align 8
  %252 = load ptr, ptr %13, align 8
  %253 = getelementptr inbounds nuw %struct._sip_stats_t, ptr %252, i32 0, i32 9
  %254 = load ptr, ptr %253, align 8
  %255 = load ptr, ptr %18, align 8
  %256 = getelementptr inbounds nuw %struct._sip_request_method_t, ptr %255, i32 0, i32 0
  %257 = load ptr, ptr %256, align 8
  %258 = load ptr, ptr %18, align 8
  %259 = call i32 @g_hash_table_insert(ptr noundef %254, ptr noundef %257, ptr noundef %258)
  br label %265

260:                                              ; preds = %201
  %261 = load ptr, ptr %18, align 8
  %262 = getelementptr inbounds nuw %struct._sip_request_method_t, ptr %261, i32 0, i32 1
  %263 = load i32, ptr %262, align 8
  %264 = add i32 %263, 1
  store i32 %264, ptr %262, align 8
  br label %265

265:                                              ; preds = %260, %238
  call void @llvm.lifetime.end.p0(i64 8, ptr %18) #9
  br label %267

266:                                              ; preds = %196
  store i32 0, ptr %6, align 4
  store i32 1, ptr %17, align 4
  br label %269

267:                                              ; preds = %265
  br label %268

268:                                              ; preds = %267, %195
  store i32 1, ptr %6, align 4
  store i32 1, ptr %17, align 4
  br label %269

269:                                              ; preds = %268, %266, %193
  call void @llvm.lifetime.end.p0(i64 8, ptr %13) #9
  call void @llvm.lifetime.end.p0(i64 8, ptr %12) #9
  %270 = load i32, ptr %6, align 4
  ret i32 %270
}