; Function Attrs: null_pointer_is_valid sspstrong uwtable
define internal range(i32 0, 2) i32 @sipstat_packet(ptr noundef %0, ptr readnone captures(none) %1, ptr readnone captures(none) %2, ptr noundef readonly captures(none) %3, i32 %4) #0 {
  %6 = alloca i32, align 4
  %7 = getelementptr inbounds nuw i8, ptr %0, i64 8
  %8 = load i32, ptr %7, align 8
  %9 = add i32 %8, 1
  store i32 %9, ptr %7, align 8
  %10 = getelementptr inbounds nuw i8, ptr %3, i64 16
  %11 = load i32, ptr %10, align 8
  %.not = icmp eq i32 %11, 0
  br i1 %.not, label %44, label %12

12:                                               ; preds = %5
  %13 = getelementptr inbounds nuw i8, ptr %0, i64 28
  %14 = load i32, ptr %13, align 4
  %15 = add i32 %14, 1
  store i32 %15, ptr %13, align 4
  %16 = getelementptr inbounds nuw i8, ptr %0, i64 32
  %17 = load i64, ptr %16, align 8
  %18 = icmp eq i64 %17, 0
  %19 = load i32, ptr %10, align 8
  br i1 %18, label %20, label %25

20:                                               ; preds = %12
  %21 = getelementptr inbounds nuw i8, ptr %0, i64 16
  store i32 %19, ptr %21, align 8
  %22 = zext i32 %19 to i64
  store i64 %22, ptr %16, align 8
  %23 = load i32, ptr %10, align 8
  %24 = getelementptr inbounds nuw i8, ptr %0, i64 20
  store i32 %23, ptr %24, align 4
  br label %.sink.split

25:                                               ; preds = %12
  %26 = zext i32 %19 to i64
  %27 = add i64 %17, %26
  store i64 %27, ptr %16, align 8
  %28 = getelementptr inbounds nuw i8, ptr %0, i64 20
  %29 = load i32, ptr %28, align 4
  %30 = load i32, ptr %10, align 8
  %31 = icmp ult i32 %29, %30
  br i1 %31, label %32, label %33

32:                                               ; preds = %25
  store i32 %30, ptr %28, align 4
  %.pre = load i32, ptr %10, align 8
  br label %33

33:                                               ; preds = %32, %25
  %34 = phi i32 [ %.pre, %32 ], [ %30, %25 ]
  %35 = getelementptr inbounds nuw i8, ptr %0, i64 24
  %36 = load i32, ptr %35, align 8
  %37 = icmp ugt i32 %36, %34
  br i1 %37, label %38, label %39

38:                                               ; preds = %33
  store i32 %34, ptr %35, align 8
  br label %39

39:                                               ; preds = %38, %33
  %40 = zext i32 %15 to i64
  %41 = udiv i64 %27, %40
  %42 = trunc i64 %41 to i32
  br label %.sink.split

.sink.split:                                      ; preds = %39, %20
  %.sink94 = phi i64 [ 24, %20 ], [ 16, %39 ]
  %.sink = phi i32 [ %23, %20 ], [ %42, %39 ]
  %43 = getelementptr inbounds nuw i8, ptr %0, i64 %.sink94
  store i32 %.sink, ptr %43, align 8
  br label %44

44:                                               ; preds = %.sink.split, %5
  %45 = getelementptr inbounds nuw i8, ptr %3, i64 12
  %46 = load i8, ptr %45, align 4, !range !9, !noundef !10
  %47 = trunc nuw i8 %46 to i1
  br i1 %47, label %48, label %52

48:                                               ; preds = %44
  %49 = getelementptr inbounds nuw i8, ptr %0, i64 12
  %50 = load i32, ptr %49, align 4
  %51 = add i32 %50, 1
  store i32 %51, ptr %49, align 4
  br label %52

52:                                               ; preds = %48, %44
  %53 = getelementptr inbounds nuw i8, ptr %3, i64 8
  %54 = load i32, ptr %53, align 8
  %.not87 = icmp eq i32 %54, 0
  br i1 %.not87, label %77, label %55

55:                                               ; preds = %52
  call void @llvm.lifetime.start.p0(i64 4, ptr nonnull %6) #11
  store i32 %54, ptr %6, align 4
  %56 = getelementptr inbounds nuw i8, ptr %0, i64 40
  %57 = load ptr, ptr %56, align 8
  %58 = call ptr @g_hash_table_lookup(ptr noundef %57, ptr noundef nonnull %6)
  %59 = icmp eq ptr %58, null
  br i1 %59, label %60, label %.critedge

60:                                               ; preds = %55
  %61 = load i32, ptr %53, align 8
  %62 = add i32 %61, -700
  %or.cond = icmp ult i32 %62, -600
  br i1 %or.cond, label %.thread, label %63

63:                                               ; preds = %60
  %64 = icmp samesign ult i32 %61, 200
  br i1 %64, label %72, label %65

65:                                               ; preds = %63
  %66 = icmp samesign ult i32 %61, 300
  br i1 %66, label %72, label %67

67:                                               ; preds = %65
  %68 = icmp samesign ult i32 %61, 400
  br i1 %68, label %72, label %69

69:                                               ; preds = %67
  %70 = icmp samesign ult i32 %61, 500
  br i1 %70, label %72, label %71

71:                                               ; preds = %69
  %.inv = icmp ugt i32 %61, 599
  %. = select i1 %.inv, i32 699, i32 599
  br label %72

72:                                               ; preds = %71, %69, %67, %65, %63
  %.sink95 = phi i32 [ 199, %63 ], [ 299, %65 ], [ 399, %67 ], [ 499, %69 ], [ %., %71 ]
  store i32 %.sink95, ptr %6, align 4
  %73 = load ptr, ptr %56, align 8
  %74 = call ptr @g_hash_table_lookup(ptr noundef %73, ptr noundef nonnull %6)
  %.not92 = icmp eq ptr %74, null
  br i1 %.not92, label %.thread, label %.critedge

.critedge:                                        ; preds = %72, %55
  %.075 = phi ptr [ %74, %72 ], [ %58, %55 ]
  %75 = load i32, ptr %.075, align 8
  %76 = add i32 %75, 1
  store i32 %76, ptr %.075, align 8
  call void @llvm.lifetime.end.p0(i64 4, ptr nonnull %6) #11
  br label %96

.thread:                                          ; preds = %60, %72
  call void @llvm.lifetime.end.p0(i64 4, ptr nonnull %6) #11
  br label %96

77:                                               ; preds = %52
  %78 = load ptr, ptr %3, align 8
  %.not88 = icmp eq ptr %78, null
  br i1 %.not88, label %96, label %79

79:                                               ; preds = %77
  %80 = getelementptr inbounds nuw i8, ptr %0, i64 48
  %81 = load ptr, ptr %80, align 8
  %82 = tail call ptr @g_hash_table_lookup(ptr noundef %81, ptr noundef nonnull %78)
  %83 = icmp eq ptr %82, null
  br i1 %83, label %84, label %92

84:                                               ; preds = %79
  %85 = tail call noalias dereferenceable_or_null(24) ptr @g_malloc(i64 noundef 24) #9
  %86 = load ptr, ptr %3, align 8
  %87 = tail call noalias ptr @g_strdup(ptr noundef %86)
  store ptr %87, ptr %85, align 8
  %88 = getelementptr inbounds nuw i8, ptr %85, i64 8
  store i32 1, ptr %88, align 8
  %89 = getelementptr inbounds nuw i8, ptr %85, i64 16
  store ptr %0, ptr %89, align 8
  %90 = load ptr, ptr %80, align 8
  %91 = tail call i32 @g_hash_table_insert(ptr noundef %90, ptr noundef %87, ptr noundef %85)
  br label %96

92:                                               ; preds = %79
  %93 = getelementptr inbounds nuw i8, ptr %82, i64 8
  %94 = load i32, ptr %93, align 8
  %95 = add i32 %94, 1
  store i32 %95, ptr %93, align 8
  br label %96

96:                                               ; preds = %.critedge, %92, %84, %77, %.thread
  %.3 = phi i32 [ 0, %.thread ], [ 0, %77 ], [ 1, %84 ], [ 1, %92 ], [ 1, %.critedge ]
  ret i32 %.3
}